target datalayout = "e-m:e-p270:32:32-p271:32:32-p272:64:64-i64:64-i128:128-f80:128-n8:16:32:64-S128"
target triple = "x86_64-pc-linux-gnu"

%struct.RangeBound = type { i64, i8, i8, i8 }
%struct.FmgrInfo = type { ptr, i32, i16, i8, i8, i8, ptr, ptr, ptr }
%struct.TypeCacheEntry = type { i32, i32, i16, i8, i8, i8, i8, i32, i32, i32, i32, i32, i32, i32, i32, i32, i32, i32, i32, i32, i32, %struct.FmgrInfo, %struct.FmgrInfo, %struct.FmgrInfo, %struct.FmgrInfo, ptr, i64, ptr, i32, i32, %struct.FmgrInfo, %struct.FmgrInfo, %struct.FmgrInfo, ptr, i32, i32, ptr, i32, ptr, ptr }

; Function Attrs: inlinehint nounwind uwtable
define internal i32 @DatumGetInt32(i64 noundef %0) #2 {
  %2 = alloca i64, align 8
  store i64 %0, ptr %2, align 8
  %3 = load i64, ptr %2, align 8
  %4 = trunc i64 %3 to i32
  ret i32 %4
}

; Function Attrs: nounwind uwtable
define dso_local i32 @range_cmp_bound_values(ptr noundef %0, ptr noundef %1, ptr noundef %2) #0 {
  %4 = alloca i32, align 4
  %5 = alloca ptr, align 8
  %6 = alloca ptr, align 8
  %7 = alloca ptr, align 8
  store ptr %0, ptr %5, align 8
  store ptr %1, ptr %6, align 8
  store ptr %2, ptr %7, align 8
  %8 = load ptr, ptr %6, align 8
  %9 = getelementptr inbounds nuw %struct.RangeBound, ptr %8, i32 0, i32 1
  %10 = load i8, ptr %9, align 8, !range !7, !noundef !8
  %11 = trunc i8 %10 to i1
  br i1 %11, label %12, label %36

12:                                               ; preds = %3
  %13 = load ptr, ptr %7, align 8
  %14 = getelementptr inbounds nuw %struct.RangeBound, ptr %13, i32 0, i32 1
  %15 = load i8, ptr %14, align 8, !range !7, !noundef !8
  %16 = trunc i8 %15 to i1
  br i1 %16, label %17, label %36

17:                                               ; preds = %12
  %18 = load ptr, ptr %6, align 8
  %19 = getelementptr inbounds nuw %struct.RangeBound, ptr %18, i32 0, i32 3
  %20 = load i8, ptr %19, align 2, !range !7, !noundef !8
  %21 = trunc i8 %20 to i1
  %22 = zext i1 %21 to i32
  %23 = load ptr, ptr %7, align 8
  %24 = getelementptr inbounds nuw %struct.RangeBound, ptr %23, i32 0, i32 3
  %25 = load i8, ptr %24, align 2, !range !7, !noundef !8
  %26 = trunc i8 %25 to i1
  %27 = zext i1 %26 to i32
  %28 = icmp eq i32 %22, %27
  br i1 %28, label %29, label %30

29:                                               ; preds = %17
  store i32 0, ptr %4, align 4
  br label %74

30:                                               ; preds = %17
  %31 = load ptr, ptr %6, align 8
  %32 = getelementptr inbounds nuw %struct.RangeBound, ptr %31, i32 0, i32 3
  %33 = load i8, ptr %32, align 2, !range !7, !noundef !8
  %34 = trunc i8 %33 to i1
  %35 = select i1 %34, i32 -1, i32 1
  store i32 %35, ptr %4, align 4
  br label %74

36:                                               ; preds = %12, %3
  %37 = load ptr, ptr %6, align 8
  %38 = getelementptr inbounds nuw %struct.RangeBound, ptr %37, i32 0, i32 1
  %39 = load i8, ptr %38, align 8, !range !7, !noundef !8
  %40 = trunc i8 %39 to i1
  br i1 %40, label %41, label %47

41:                                               ; preds = %36
  %42 = load ptr, ptr %6, align 8
  %43 = getelementptr inbounds nuw %struct.RangeBound, ptr %42, i32 0, i32 3
  %44 = load i8, ptr %43, align 2, !range !7, !noundef !8
  %45 = trunc i8 %44 to i1
  %46 = select i1 %45, i32 -1, i32 1
  store i32 %46, ptr %4, align 4
  br label %74

47:                                               ; preds = %36
  %48 = load ptr, ptr %7, align 8
  %49 = getelementptr inbounds nuw %struct.RangeBound, ptr %48, i32 0, i32 1
  %50 = load i8, ptr %49, align 8, !range !7, !noundef !8
  %51 = trunc i8 %50 to i1
  br i1 %51, label %52, label %58

52:                                               ; preds = %47
  %53 = load ptr, ptr %7, align 8
  %54 = getelementptr inbounds nuw %struct.RangeBound, ptr %53, i32 0, i32 3
  %55 = load i8, ptr %54, align 2, !range !7, !noundef !8
  %56 = trunc i8 %55 to i1
  %57 = select i1 %56, i32 1, i32 -1
  store i32 %57, ptr %4, align 4
  br label %74

58:                                               ; preds = %47
  br label %59

59:                                               ; preds = %58
  br label %60

60:                                               ; preds = %59
  %61 = load ptr, ptr %5, align 8
  %62 = getelementptr inbounds nuw %struct.TypeCacheEntry, ptr %61, i32 0, i32 30
  %63 = load ptr, ptr %5, align 8
  %64 = getelementptr inbounds nuw %struct.TypeCacheEntry, ptr %63, i32 0, i32 29
  %65 = load i32, ptr %64, align 4
  %66 = load ptr, ptr %6, align 8
  %67 = getelementptr inbounds nuw %struct.RangeBound, ptr %66, i32 0, i32 0
  %68 = load i64, ptr %67, align 8
  %69 = load ptr, ptr %7, align 8
  %70 = getelementptr inbounds nuw %struct.RangeBound, ptr %69, i32 0, i32 0
  %71 = load i64, ptr %70, align 8
  %72 = call i64 @FunctionCall2Coll(ptr noundef %62, i32 noundef %65, i64 noundef %68, i64 noundef %71)
  %73 = call i32 @DatumGetInt32(i64 noundef %72)
  store i32 %73, ptr %4, align 4
  br label %74

74:                                               ; preds = %60, %52, %41, %30, %29
  %75 = load i32, ptr %4, align 4
  ret i32 %75
}